; Function Attrs: mustprogress nounwind uwtable
define void @_ZN12JSONIOPluginD2Ev(ptr noundef nonnull align 8 dereferenceable(32) %0, ptr nocapture noundef readonly %1) unnamed_addr #4 align 2 personality ptr @__gxx_personality_v0 {
  %3 = load ptr, ptr %1, align 8
  store ptr %3, ptr %0, align 8
  %4 = getelementptr inbounds i8, ptr %1, i64 32
  %5 = load ptr, ptr %4, align 8
  %6 = getelementptr inbounds i8, ptr %0, i64 16
  store ptr %5, ptr %6, align 8
  %7 = getelementptr inbounds i8, ptr %1, i64 40
  %8 = load ptr, ptr %7, align 8
  %9 = getelementptr i8, ptr %3, i64 -24
  %10 = load i64, ptr %9, align 8
  %11 = getelementptr inbounds i8, ptr %0, i64 %10
  store ptr %8, ptr %11, align 8
  %12 = getelementptr inbounds i8, ptr %1, i64 48
  %13 = load ptr, ptr %12, align 8
  %14 = load ptr, ptr %0, align 8
  %15 = getelementptr i8, ptr %14, i64 -32
  %16 = load i64, ptr %15, align 8
  %17 = getelementptr inbounds i8, ptr %0, i64 %16
  store ptr %13, ptr %17, align 8
  %18 = getelementptr inbounds i8, ptr %1, i64 8
  %19 = load ptr, ptr %18, align 8
  store ptr %19, ptr %6, align 8
  %20 = getelementptr inbounds i8, ptr %1, i64 16
  %21 = load ptr, ptr %20, align 8
  %22 = getelementptr i8, ptr %19, i64 -24
  %23 = load i64, ptr %22, align 8
  %24 = getelementptr inbounds i8, ptr %6, i64 %23
  store ptr %21, ptr %24, align 8
  %25 = getelementptr inbounds i8, ptr %1, i64 24
  %26 = load ptr, ptr %25, align 8
  %27 = load ptr, ptr %6, align 8
  %28 = getelementptr i8, ptr %27, i64 -32
  %29 = load i64, ptr %28, align 8
  %30 = getelementptr inbounds i8, ptr %6, i64 %29
  store ptr %26, ptr %30, align 8
  %31 = getelementptr inbounds i8, ptr %0, i64 24
  %32 = load ptr, ptr %31, align 8
  %33 = load atomic i32, ptr %32 monotonic, align 4
  switch i32 %33, label %_ZN9QtPrivate8RefCount5derefEv.exit.i.i [
    i32 0, label %_ZN9QtPrivate8RefCount5derefEv.exit.thread2.i.i
    i32 -1, label %_ZN8IOPluginD2Ev.exit
  ]

_ZN9QtPrivate8RefCount5derefEv.exit.i.i:          ; preds = %2
  %34 = atomicrmw sub ptr %32, i32 1 seq_cst, align 4
  %.not.i.i = icmp eq i32 %34, 1
  br i1 %.not.i.i, label %_ZN9QtPrivate8RefCount5derefEv.exit._ZN9QtPrivate8RefCount5derefEv.exit.thread2_crit_edge.i.i, label %_ZN8IOPluginD2Ev.exit

_ZN9QtPrivate8RefCount5derefEv.exit._ZN9QtPrivate8RefCount5derefEv.exit.thread2_crit_edge.i.i: ; preds = %_ZN9QtPrivate8RefCount5derefEv.exit.i.i
  %.pre.i.i = load ptr, ptr %31, align 8
  br label %_ZN9QtPrivate8RefCount5derefEv.exit.thread2.i.i

_ZN9QtPrivate8RefCount5derefEv.exit.thread2.i.i:  ; preds = %_ZN9QtPrivate8RefCount5derefEv.exit._ZN9QtPrivate8RefCount5derefEv.exit.thread2_crit_edge.i.i, %2
  %35 = phi ptr [ %.pre.i.i, %_ZN9QtPrivate8RefCount5derefEv.exit._ZN9QtPrivate8RefCount5derefEv.exit.thread2_crit_edge.i.i ], [ %32, %2 ]
  tail call void @_ZN10QArrayData10deallocateEPS_mm(ptr noundef %35, i64 noundef 2, i64 noundef 8) #22
  br label %_ZN8IOPluginD2Ev.exit

_ZN8IOPluginD2Ev.exit:                            ; preds = %2, %_ZN9QtPrivate8RefCount5derefEv.exit.i.i, %_ZN9QtPrivate8RefCount5derefEv.exit.thread2.i.i
  tail call void @_ZN7QObjectD2Ev(ptr noundef nonnull align 8 dereferenceable(16) %0) #22
  ret void
}